target datalayout = "e-m:e-p270:32:32-p271:32:32-p272:64:64-i64:64-i128:128-f80:128-n8:16:32:64-S128"
target triple = "x86_64-pc-linux-gnu"

%"class.cv::Mat" = type { i32, i32, i32, i32, ptr, ptr, ptr, ptr, ptr, ptr, %"struct.cv::MatSize", %"struct.cv::MatStep" }
%"struct.cv::MatSize" = type { ptr }
%"struct.cv::MatStep" = type { ptr, [2 x i64] }
%"class.cv::Size_" = type { i32, i32 }
%"class.cv::ParallelLoopBody" = type { ptr }
%"class.cv::Range" = type { i32, i32 }
%"class.cv::AutoBuffer.12" = type { ptr, i64, [136 x double] }
%"struct.cv::OpAddSqr.48" = type { i8 }
%"struct.cv::OpSqr.49" = type { i8 }
%"class.cv::ReduceR_Invoker.50" = type { %"class.cv::ParallelLoopBody", ptr, ptr, ptr, ptr, %"class.cv::AutoBuffer.12" }

@_ZTVN2cv16ParallelLoopBodyE = available_externally unnamed_addr constant { [5 x ptr] } { [5 x ptr] [ptr null, ptr @_ZTIN2cv16ParallelLoopBodyE, ptr @_ZN2cv16ParallelLoopBodyD1Ev, ptr @_ZN2cv16ParallelLoopBodyD0Ev, ptr @__cxa_pure_virtual] }, align 8

; Function Attrs: inlinehint mustprogress nounwind uwtable
define linkonce_odr hidden void @_ZN2cv10AutoBufferIdLm136EE10deallocateEv(ptr noundef nonnull align 8 dereferenceable(1104) %0) #1 comdat align 2 {
  %2 = alloca ptr, align 8
  store ptr %0, ptr %2, align 8, !tbaa !301
  %3 = load ptr, ptr %2, align 8
  %4 = getelementptr inbounds nuw %"class.cv::AutoBuffer.12", ptr %3, i32 0, i32 0
  %5 = load ptr, ptr %4, align 8, !tbaa !303
  %6 = getelementptr inbounds nuw %"class.cv::AutoBuffer.12", ptr %3, i32 0, i32 2
  %7 = getelementptr inbounds [136 x double], ptr %6, i64 0, i64 0
  %8 = icmp ne ptr %5, %7
  br i1 %8, label %9, label %19

9:                                                ; preds = %1
  %10 = getelementptr inbounds nuw %"class.cv::AutoBuffer.12", ptr %3, i32 0, i32 0
  %11 = load ptr, ptr %10, align 8, !tbaa !303
  %12 = icmp eq ptr %11, null
  br i1 %12, label %14, label %13

13:                                               ; preds = %9
  call void @_ZdaPv(ptr noundef %11) #17
  br label %14

14:                                               ; preds = %13, %9
  %15 = getelementptr inbounds nuw %"class.cv::AutoBuffer.12", ptr %3, i32 0, i32 2
  %16 = getelementptr inbounds [136 x double], ptr %15, i64 0, i64 0
  %17 = getelementptr inbounds nuw %"class.cv::AutoBuffer.12", ptr %3, i32 0, i32 0
  store ptr %16, ptr %17, align 8, !tbaa !303
  %18 = getelementptr inbounds nuw %"class.cv::AutoBuffer.12", ptr %3, i32 0, i32 1
  store i64 136, ptr %18, align 8, !tbaa !304
  br label %19

19:                                               ; preds = %14, %1
  ret void
}

; Function Attrs: inlinehint mustprogress uwtable
define linkonce_odr hidden void @_ZN2cv10AutoBufferIdLm136EE8allocateEm(ptr noundef nonnull align 8 dereferenceable(1104) %0, i64 noundef %1) #6 comdat align 2 {
  %3 = alloca ptr, align 8
  %4 = alloca i64, align 8
  store ptr %0, ptr %3, align 8, !tbaa !301
  store i64 %1, ptr %4, align 8, !tbaa !36
  %5 = load ptr, ptr %3, align 8
  %6 = load i64, ptr %4, align 8, !tbaa !36
  %7 = getelementptr inbounds nuw %"class.cv::AutoBuffer.12", ptr %5, i32 0, i32 1
  %8 = load i64, ptr %7, align 8, !tbaa !304
  %9 = icmp ule i64 %6, %8
  br i1 %9, label %10, label %13

10:                                               ; preds = %2
  %11 = load i64, ptr %4, align 8, !tbaa !36
  %12 = getelementptr inbounds nuw %"class.cv::AutoBuffer.12", ptr %5, i32 0, i32 1
  store i64 %11, ptr %12, align 8, !tbaa !304
  br label %26

13:                                               ; preds = %2
  call void @_ZN2cv10AutoBufferIdLm136EE10deallocateEv(ptr noundef nonnull align 8 dereferenceable(1104) %5)
  %14 = load i64, ptr %4, align 8, !tbaa !36
  %15 = getelementptr inbounds nuw %"class.cv::AutoBuffer.12", ptr %5, i32 0, i32 1
  store i64 %14, ptr %15, align 8, !tbaa !304
  %16 = load i64, ptr %4, align 8, !tbaa !36
  %17 = icmp ugt i64 %16, 136
  br i1 %17, label %18, label %26

18:                                               ; preds = %13
  %19 = load i64, ptr %4, align 8, !tbaa !36
  %20 = call { i64, i1 } @llvm.umul.with.overflow.i64(i64 %19, i64 8)
  %21 = extractvalue { i64, i1 } %20, 1
  %22 = extractvalue { i64, i1 } %20, 0
  %23 = select i1 %21, i64 -1, i64 %22
  %24 = call noalias noundef nonnull ptr @_Znam(i64 noundef %23) #18
  %25 = getelementptr inbounds nuw %"class.cv::AutoBuffer.12", ptr %5, i32 0, i32 0
  store ptr %24, ptr %25, align 8, !tbaa !303
  br label %26

26:                                               ; preds = %10, %18, %13
  ret void
}

; Function Attrs: inlinehint mustprogress nounwind uwtable
define linkonce_odr hidden void @_ZN2cv5Size_IiEC2Eii(ptr noundef nonnull align 4 dereferenceable(8) %0, i32 noundef %1, i32 noundef %2) unnamed_addr #1 comdat align 2 {
  %4 = alloca ptr, align 8
  %5 = alloca i32, align 4
  %6 = alloca i32, align 4
  store ptr %0, ptr %4, align 8, !tbaa !98
  store i32 %1, ptr %5, align 4, !tbaa !20
  store i32 %2, ptr %6, align 4, !tbaa !20
  %7 = load ptr, ptr %4, align 8
  %8 = getelementptr inbounds nuw %"class.cv::Size_", ptr %7, i32 0, i32 0
  %9 = load i32, ptr %5, align 4, !tbaa !20
  store i32 %9, ptr %8, align 4, !tbaa !100
  %10 = getelementptr inbounds nuw %"class.cv::Size_", ptr %7, i32 0, i32 1
  %11 = load i32, ptr %6, align 4, !tbaa !20
  store i32 %11, ptr %10, align 4, !tbaa !101
  ret void
}

; Function Attrs: inlinehint mustprogress uwtable
define linkonce_odr hidden void @_ZN2cv10AutoBufferIdLm136EEC2Em(ptr noundef nonnull align 8 dereferenceable(1104) %0, i64 noundef %1) unnamed_addr #6 comdat align 2 {
  %3 = alloca ptr, align 8
  %4 = alloca i64, align 8
  store ptr %0, ptr %3, align 8, !tbaa !301
  store i64 %1, ptr %4, align 8, !tbaa !36
  %5 = load ptr, ptr %3, align 8
  %6 = getelementptr inbounds nuw %"class.cv::AutoBuffer.12", ptr %5, i32 0, i32 2
  %7 = getelementptr inbounds [136 x double], ptr %6, i64 0, i64 0
  %8 = getelementptr inbounds nuw %"class.cv::AutoBuffer.12", ptr %5, i32 0, i32 0
  store ptr %7, ptr %8, align 8, !tbaa !303
  %9 = getelementptr inbounds nuw %"class.cv::AutoBuffer.12", ptr %5, i32 0, i32 1
  store i64 136, ptr %9, align 8, !tbaa !304
  %10 = load i64, ptr %4, align 8, !tbaa !36
  call void @_ZN2cv10AutoBufferIdLm136EE8allocateEm(ptr noundef nonnull align 8 dereferenceable(1104) %5, i64 noundef %10)
  ret void
}

; Function Attrs: inlinehint mustprogress nounwind uwtable
define linkonce_odr hidden void @_ZN2cv16ParallelLoopBodyC2Ev(ptr noundef nonnull align 8 dereferenceable(8) %0) unnamed_addr #1 comdat align 2 {
  %2 = alloca ptr, align 8
  store ptr %0, ptr %2, align 8, !tbaa !237
  %3 = load ptr, ptr %2, align 8
  store ptr getelementptr inbounds inrange(-16, 24) ({ [5 x ptr] }, ptr @_ZTVN2cv16ParallelLoopBodyE, i32 0, i32 0, i32 2), ptr %3, align 8, !tbaa !226
  ret void
}

; Function Attrs: inlinehint mustprogress nounwind uwtable
define linkonce_odr hidden noundef i32 @_ZNK2cv3Mat5depthEv(ptr noundef nonnull align 8 dereferenceable(96) %0) #1 comdat align 2 {
  %2 = alloca ptr, align 8
  store ptr %0, ptr %2, align 8, !tbaa !3
  %3 = load ptr, ptr %2, align 8
  %4 = getelementptr inbounds nuw %"class.cv::Mat", ptr %3, i32 0, i32 0
  %5 = load i32, ptr %4, align 8, !tbaa !46
  %6 = and i32 %5, 7
  ret i32 %6
}

; Function Attrs: inlinehint mustprogress nounwind uwtable
define linkonce_odr hidden void @_ZN2cv5RangeC2Eii(ptr noundef nonnull align 4 dereferenceable(8) %0, i32 noundef %1, i32 noundef %2) unnamed_addr #1 comdat align 2 {
  %4 = alloca ptr, align 8
  %5 = alloca i32, align 4
  %6 = alloca i32, align 4
  store ptr %0, ptr %4, align 8, !tbaa !232
  store i32 %1, ptr %5, align 4, !tbaa !20
  store i32 %2, ptr %6, align 4, !tbaa !20
  %7 = load ptr, ptr %4, align 8
  %8 = getelementptr inbounds nuw %"class.cv::Range", ptr %7, i32 0, i32 0
  %9 = load i32, ptr %5, align 4, !tbaa !20
  store i32 %9, ptr %8, align 4, !tbaa !234
  %10 = getelementptr inbounds nuw %"class.cv::Range", ptr %7, i32 0, i32 1
  %11 = load i32, ptr %6, align 4, !tbaa !20
  store i32 %11, ptr %10, align 4, !tbaa !236
  ret void
}

; Function Attrs: inlinehint mustprogress nounwind uwtable
define linkonce_odr hidden noundef i32 @_ZNK2cv3Mat8channelsEv(ptr noundef nonnull align 8 dereferenceable(96) %0) #1 comdat align 2 {
  %2 = alloca ptr, align 8
  store ptr %0, ptr %2, align 8, !tbaa !3
  %3 = load ptr, ptr %2, align 8
  %4 = getelementptr inbounds nuw %"class.cv::Mat", ptr %3, i32 0, i32 0
  %5 = load i32, ptr %4, align 8, !tbaa !46
  %6 = and i32 %5, 4088
  %7 = ashr i32 %6, 3
  %8 = add nsw i32 %7, 1
  ret i32 %8
}

; Function Attrs: inlinehint mustprogress uwtable
define linkonce_odr hidden i64 @_ZNK2cv7MatSizeclEv(ptr noundef nonnull align 8 dereferenceable(8) %0) #6 comdat align 2 {
  %2 = alloca %"class.cv::Size_", align 4
  %3 = alloca ptr, align 8
  store ptr %0, ptr %3, align 8, !tbaa !112
  %4 = load ptr, ptr %3, align 8
  %5 = getelementptr inbounds nuw %"struct.cv::MatSize", ptr %4, i32 0, i32 0
  %6 = load ptr, ptr %5, align 8, !tbaa !114
  %7 = getelementptr inbounds i32, ptr %6, i64 1
  %8 = load i32, ptr %7, align 4, !tbaa !20
  %9 = getelementptr inbounds nuw %"struct.cv::MatSize", ptr %4, i32 0, i32 0
  %10 = load ptr, ptr %9, align 8, !tbaa !114
  %11 = getelementptr inbounds i32, ptr %10, i64 0
  %12 = load i32, ptr %11, align 4, !tbaa !20
  call void @_ZN2cv5Size_IiEC2Eii(ptr noundef nonnull align 4 dereferenceable(8) %2, i32 noundef %8, i32 noundef %12)
  %13 = load i64, ptr %2, align 4
  ret i64 %13
}

; Function Attrs: mustprogress uwtable
define linkonce_odr hidden void @_ZN2cv15ReduceR_InvokerItddNS_8OpAddSqrIdddEENS_5OpSqrIdddEEEC2ERKNS_3MatERS6_RS2_RS4_(ptr noundef nonnull align 8 dereferenceable(1144) %0, ptr noundef nonnull align 8 dereferenceable(96) %1, ptr noundef nonnull align 8 dereferenceable(96) %2, ptr noundef nonnull align 1 dereferenceable(1) %3, ptr noundef nonnull align 1 dereferenceable(1) %4) unnamed_addr #2 comdat align 2 personality ptr @__gxx_personality_v0 {
  %6 = alloca ptr, align 8
  %7 = alloca ptr, align 8
  %8 = alloca ptr, align 8
  %9 = alloca ptr, align 8
  %10 = alloca ptr, align 8
  %11 = alloca %"class.cv::Size_", align 4
  %12 = alloca ptr, align 8
  %13 = alloca i32, align 4
  store ptr %0, ptr %6, align 8, !tbaa !570
  store ptr %1, ptr %7, align 8, !tbaa !3
  store ptr %2, ptr %8, align 8, !tbaa !3
  store ptr %3, ptr %9, align 8, !tbaa !572
  store ptr %4, ptr %10, align 8, !tbaa !574
  %14 = load ptr, ptr %6, align 8
  call void @_ZN2cv16ParallelLoopBodyC2Ev(ptr noundef nonnull align 8 dereferenceable(8) %14) #14
  store ptr getelementptr inbounds inrange(-16, 24) ({ [5 x ptr] }, ptr @_ZTVN2cv15ReduceR_InvokerItddNS_8OpAddSqrIdddEENS_5OpSqrIdddEEEE, i32 0, i32 0, i32 2), ptr %14, align 8, !tbaa !226
  %15 = getelementptr inbounds nuw %"class.cv::ReduceR_Invoker.50", ptr %14, i32 0, i32 1
  %16 = load ptr, ptr %7, align 8, !tbaa !3
  store ptr %16, ptr %15, align 8, !tbaa !3
  %17 = getelementptr inbounds nuw %"class.cv::ReduceR_Invoker.50", ptr %14, i32 0, i32 2
  %18 = load ptr, ptr %8, align 8, !tbaa !3
  store ptr %18, ptr %17, align 8, !tbaa !3
  %19 = getelementptr inbounds nuw %"class.cv::ReduceR_Invoker.50", ptr %14, i32 0, i32 3
  %20 = load ptr, ptr %9, align 8, !tbaa !572
  store ptr %20, ptr %19, align 8, !tbaa !572
  %21 = getelementptr inbounds nuw %"class.cv::ReduceR_Invoker.50", ptr %14, i32 0, i32 4
  %22 = load ptr, ptr %10, align 8, !tbaa !574
  store ptr %22, ptr %21, align 8, !tbaa !574
  %23 = getelementptr inbounds nuw %"class.cv::ReduceR_Invoker.50", ptr %14, i32 0, i32 5
  call void @llvm.lifetime.start.p0(i64 8, ptr %11) #14
  %24 = getelementptr inbounds nuw %"class.cv::ReduceR_Invoker.50", ptr %14, i32 0, i32 1
  %25 = load ptr, ptr %24, align 8, !tbaa !576
  %26 = getelementptr inbounds nuw %"class.cv::Mat", ptr %25, i32 0, i32 10
  %27 = invoke i64 @_ZNK2cv7MatSizeclEv(ptr noundef nonnull align 8 dereferenceable(8) %26)
          to label %28 unwind label %37

28:                                               ; preds = %5
  store i64 %27, ptr %11, align 4
  %29 = getelementptr inbounds nuw %"class.cv::Size_", ptr %11, i32 0, i32 0
  %30 = load i32, ptr %29, align 4, !tbaa !100
  %31 = getelementptr inbounds nuw %"class.cv::ReduceR_Invoker.50", ptr %14, i32 0, i32 1
  %32 = load ptr, ptr %31, align 8, !tbaa !576
  %33 = call noundef i32 @_ZNK2cv3Mat8channelsEv(ptr noundef nonnull align 8 dereferenceable(96) %32)
  %34 = mul nsw i32 %30, %33
  %35 = sext i32 %34 to i64
  invoke void @_ZN2cv10AutoBufferIdLm136EEC2Em(ptr noundef nonnull align 8 dereferenceable(1104) %23, i64 noundef %35)
          to label %36 unwind label %37

36:                                               ; preds = %28
  call void @llvm.lifetime.end.p0(i64 8, ptr %11) #14
  ret void

37:                                               ; preds = %28, %5
  %38 = landingpad { ptr, i32 }
          cleanup
  %39 = extractvalue { ptr, i32 } %38, 0
  store ptr %39, ptr %12, align 8
  %40 = extractvalue { ptr, i32 } %38, 1
  store i32 %40, ptr %13, align 4
  call void @llvm.lifetime.end.p0(i64 8, ptr %11) #14
  call void @_ZN2cv16ParallelLoopBodyD2Ev(ptr noundef nonnull align 8 dereferenceable(8) %14) #14
  br label %41

41:                                               ; preds = %37
  %42 = load ptr, ptr %12, align 8
  %43 = load i32, ptr %13, align 4
  %44 = insertvalue { ptr, i32 } poison, ptr %42, 0
  %45 = insertvalue { ptr, i32 } %44, i32 %43, 1
  resume { ptr, i32 } %45
}

; Function Attrs: mustprogress uwtable
define internal void @_ZN2cvL8reduceR_ItdNS_8OpAddSqrIdddEENS_5OpSqrIdddEEEEvRKNS_3MatERS5_(ptr noundef nonnull align 8 dereferenceable(96) %0, ptr noundef nonnull align 8 dereferenceable(96) %1) #2 personality ptr @__gxx_personality_v0 {
  %3 = alloca ptr, align 8
  %4 = alloca ptr, align 8
  %5 = alloca %"struct.cv::OpAddSqr.48", align 1
  %6 = alloca %"struct.cv::OpSqr.49", align 1
  %7 = alloca %"class.cv::ReduceR_Invoker.50", align 8
  %8 = alloca %"class.cv::Range", align 4
  %9 = alloca %"class.cv::Size_", align 4
  %10 = alloca ptr, align 8
  %11 = alloca i32, align 4
  %12 = alloca %"class.cv::Size_", align 4
  store ptr %0, ptr %3, align 8, !tbaa !3
  store ptr %1, ptr %4, align 8, !tbaa !3
  call void @llvm.lifetime.start.p0(i64 1, ptr %5) #14
  call void @llvm.lifetime.start.p0(i64 1, ptr %6) #14
  call void @llvm.lifetime.start.p0(i64 1144, ptr %7) #14
  %13 = load ptr, ptr %3, align 8, !tbaa !3
  %14 = load ptr, ptr %4, align 8, !tbaa !3
  call void @_ZN2cv15ReduceR_InvokerItddNS_8OpAddSqrIdddEENS_5OpSqrIdddEEEC2ERKNS_3MatERS6_RS2_RS4_(ptr noundef nonnull align 8 dereferenceable(1144) %7, ptr noundef nonnull align 8 dereferenceable(96) %13, ptr noundef nonnull align 8 dereferenceable(96) %14, ptr noundef nonnull align 1 dereferenceable(1) %5, ptr noundef nonnull align 1 dereferenceable(1) %6)
  call void @llvm.lifetime.start.p0(i64 8, ptr %8) #14
  call void @llvm.lifetime.start.p0(i64 8, ptr %9) #14
  %15 = load ptr, ptr %3, align 8, !tbaa !3
  %16 = getelementptr inbounds nuw %"class.cv::Mat", ptr %15, i32 0, i32 10
  %17 = invoke i64 @_ZNK2cv7MatSizeclEv(ptr noundef nonnull align 8 dereferenceable(8) %16)
          to label %18 unwind label %47

18:                                               ; preds = %2
  store i64 %17, ptr %9, align 4
  %19 = getelementptr inbounds nuw %"class.cv::Size_", ptr %9, i32 0, i32 0
  %20 = load i32, ptr %19, align 4, !tbaa !100
  %21 = load ptr, ptr %3, align 8, !tbaa !3
  %22 = call noundef i32 @_ZNK2cv3Mat8channelsEv(ptr noundef nonnull align 8 dereferenceable(96) %21)
  %23 = mul nsw i32 %20, %22
  invoke void @_ZN2cv5RangeC2Eii(ptr noundef nonnull align 4 dereferenceable(8) %8, i32 noundef 0, i32 noundef %23)
          to label %24 unwind label %47

24:                                               ; preds = %18
  call void @llvm.lifetime.start.p0(i64 8, ptr %12) #14
  %25 = load ptr, ptr %3, align 8, !tbaa !3
  %26 = getelementptr inbounds nuw %"class.cv::Mat", ptr %25, i32 0, i32 10
  %27 = invoke i64 @_ZNK2cv7MatSizeclEv(ptr noundef nonnull align 8 dereferenceable(8) %26)
          to label %28 unwind label %51

28:                                               ; preds = %24
  store i64 %27, ptr %12, align 4
  %29 = getelementptr inbounds nuw %"class.cv::Size_", ptr %12, i32 0, i32 0
  %30 = load i32, ptr %29, align 4, !tbaa !100
  %31 = load ptr, ptr %3, align 8, !tbaa !3
  %32 = call noundef i32 @_ZNK2cv3Mat5depthEv(ptr noundef nonnull align 8 dereferenceable(96) %31)
  %33 = and i32 %32, 4088
  %34 = ashr i32 %33, 3
  %35 = add nsw i32 %34, 1
  %36 = load ptr, ptr %3, align 8, !tbaa !3
  %37 = call noundef i32 @_ZNK2cv3Mat5depthEv(ptr noundef nonnull align 8 dereferenceable(96) %36)
  %38 = and i32 %37, 7
  %39 = mul nsw i32 %38, 4
  %40 = ashr i32 675553809, %39
  %41 = and i32 %40, 15
  %42 = mul nsw i32 %35, %41
  %43 = mul nsw i32 %30, %42
  %44 = sdiv i32 %43, 64
  %45 = sitofp i32 %44 to double
  invoke void @_ZN2cv13parallel_for_ERKNS_5RangeERKNS_16ParallelLoopBodyEd(ptr noundef nonnull align 4 dereferenceable(8) %8, ptr noundef nonnull align 8 dereferenceable(8) %7, double noundef %45)
          to label %46 unwind label %51

46:                                               ; preds = %28
  call void @llvm.lifetime.end.p0(i64 8, ptr %12) #14
  call void @llvm.lifetime.end.p0(i64 8, ptr %9) #14
  call void @llvm.lifetime.end.p0(i64 8, ptr %8) #14
  call void @_ZN2cv15ReduceR_InvokerItddNS_8OpAddSqrIdddEENS_5OpSqrIdddEEED2Ev(ptr noundef nonnull align 8 dereferenceable(1144) %7) #14
  call void @llvm.lifetime.end.p0(i64 1144, ptr %7) #14
  call void @llvm.lifetime.end.p0(i64 1, ptr %6) #14
  call void @llvm.lifetime.end.p0(i64 1, ptr %5) #14
  ret void

47:                                               ; preds = %18, %2
  %48 = landingpad { ptr, i32 }
          cleanup
  %49 = extractvalue { ptr, i32 } %48, 0
  store ptr %49, ptr %10, align 8
  %50 = extractvalue { ptr, i32 } %48, 1
  store i32 %50, ptr %11, align 4
  br label %55

51:                                               ; preds = %28, %24
  %52 = landingpad { ptr, i32 }
          cleanup
  %53 = extractvalue { ptr, i32 } %52, 0
  store ptr %53, ptr %10, align 8
  %54 = extractvalue { ptr, i32 } %52, 1
  store i32 %54, ptr %11, align 4
  call void @llvm.lifetime.end.p0(i64 8, ptr %12) #14
  br label %55

55:                                               ; preds = %51, %47
  call void @llvm.lifetime.end.p0(i64 8, ptr %9) #14
  call void @llvm.lifetime.end.p0(i64 8, ptr %8) #14
  call void @_ZN2cv15ReduceR_InvokerItddNS_8OpAddSqrIdddEENS_5OpSqrIdddEEED2Ev(ptr noundef nonnull align 8 dereferenceable(1144) %7) #14
  call void @llvm.lifetime.end.p0(i64 1144, ptr %7) #14
  call void @llvm.lifetime.end.p0(i64 1, ptr %6) #14
  call void @llvm.lifetime.end.p0(i64 1, ptr %5) #14
  br label %56

56:                                               ; preds = %55
  %57 = load ptr, ptr %10, align 8
  %58 = load i32, ptr %11, align 4
  %59 = insertvalue { ptr, i32 } poison, ptr %57, 0
  %60 = insertvalue { ptr, i32 } %59, i32 %58, 1
  resume { ptr, i32 } %60
}